target datalayout = "e-m:e-p270:32:32-p271:32:32-p272:64:64-i64:64-i128:128-f80:128-n8:16:32:64-S128"
target triple = "x86_64-pc-linux-gnu"

%struct.KLVPacket = type { [16 x i8], i64, i64, i64 }
%struct.AVFormatContext = type { ptr, ptr, ptr, ptr, ptr, i32, i32, ptr, i32, ptr, i32, ptr, ptr, i64, i64, i64, i32, i32, i32, i64, i64, ptr, i32, i32, ptr, i32, i32, i32, i32, ptr, i64, i32, i32, %struct.AVIOInterruptCB, i32, i32, i32, i32, i64, i32, i32, i32, i32, i32, i32, i32, i32, i32, i32, i32, i32, i64, i32, i32, i32, i32, i32, ptr, ptr, ptr, ptr, i32, ptr, ptr, ptr, ptr, i32, ptr, ptr, i64, ptr, ptr, ptr, i64 }
%struct.AVIOInterruptCB = type { ptr, ptr }
%struct.MXFContext = type { ptr, ptr, i32, i32, ptr, i32, ptr, i32, [26 x %struct.MXFMetadataSetGroup], ptr, ptr, ptr, i32, i64, %struct.KLVPacket, i32, ptr, i32, i64, i32, i32, ptr, i32 }
%struct.MXFMetadataSetGroup = type { ptr, i32 }
%struct.MXFIndexTable = type { i32, i32, i32, i64, ptr, i32, ptr, ptr, ptr }
%struct.AVStream = type { ptr, i32, i32, ptr, ptr, %struct.AVRational, i64, i64, i64, i32, i32, %struct.AVRational, ptr, %struct.AVRational, %struct.AVPacket, i32, %struct.AVRational, i32 }
%struct.AVPacket = type { ptr, i64, i64, ptr, i32, i32, i32, ptr, i32, i64, i64, ptr, ptr, %struct.AVRational }
%struct.AVRational = type { i32, i32 }

; Function Attrs: nounwind uwtable
define internal i32 @mxf_read_close(ptr noundef %0) #0 {
  %2 = alloca ptr, align 8
  %3 = alloca ptr, align 8
  %4 = alloca i32, align 4
  %5 = alloca i32, align 4
  %6 = alloca i32, align 4
  %7 = alloca ptr, align 8
  %8 = alloca i32, align 4
  %9 = alloca i32, align 4
  store ptr %0, ptr %2, align 8, !tbaa !18
  call void @llvm.lifetime.start.p0(i64 8, ptr %3) #13
  %10 = load ptr, ptr %2, align 8, !tbaa !18
  %11 = getelementptr inbounds nuw %struct.AVFormatContext, ptr %10, i32 0, i32 3
  %12 = load ptr, ptr %11, align 8, !tbaa !20
  store ptr %12, ptr %3, align 8, !tbaa !35
  %13 = load ptr, ptr %3, align 8, !tbaa !35
  %14 = getelementptr inbounds nuw %struct.MXFContext, ptr %13, i32 0, i32 4
  call void @av_freep(ptr noundef %14)
  %15 = load ptr, ptr %3, align 8, !tbaa !35
  %16 = getelementptr inbounds nuw %struct.MXFContext, ptr %15, i32 0, i32 6
  call void @av_freep(ptr noundef %16)
  call void @llvm.lifetime.start.p0(i64 4, ptr %4) #13
  store i32 0, ptr %4, align 4, !tbaa !47
  br label %17

17:                                               ; preds = %33, %1
  %18 = load i32, ptr %4, align 4, !tbaa !47
  %19 = load ptr, ptr %2, align 8, !tbaa !18
  %20 = getelementptr inbounds nuw %struct.AVFormatContext, ptr %19, i32 0, i32 6
  %21 = load i32, ptr %20, align 4, !tbaa !64
  %22 = icmp ult i32 %18, %21
  br i1 %22, label %24, label %23

23:                                               ; preds = %17
  call void @llvm.lifetime.end.p0(i64 4, ptr %4) #13
  br label %36

24:                                               ; preds = %17
  %25 = load ptr, ptr %2, align 8, !tbaa !18
  %26 = getelementptr inbounds nuw %struct.AVFormatContext, ptr %25, i32 0, i32 7
  %27 = load ptr, ptr %26, align 8, !tbaa !65
  %28 = load i32, ptr %4, align 4, !tbaa !47
  %29 = sext i32 %28 to i64
  %30 = getelementptr inbounds ptr, ptr %27, i64 %29
  %31 = load ptr, ptr %30, align 8, !tbaa !66
  %32 = getelementptr inbounds nuw %struct.AVStream, ptr %31, i32 0, i32 4
  store ptr null, ptr %32, align 8, !tbaa !83
  br label %33

33:                                               ; preds = %24
  %34 = load i32, ptr %4, align 4, !tbaa !47
  %35 = add nsw i32 %34, 1
  store i32 %35, ptr %4, align 4, !tbaa !47
  br label %17, !llvm.loop !113

36:                                               ; preds = %23
  call void @llvm.lifetime.start.p0(i64 4, ptr %5) #13
  store i32 0, ptr %5, align 4, !tbaa !47
  br label %37

37:                                               ; preds = %71, %36
  %38 = load i32, ptr %5, align 4, !tbaa !47
  %39 = sext i32 %38 to i64
  %40 = icmp ult i64 %39, 26
  br i1 %40, label %42, label %41

41:                                               ; preds = %37
  store i32 5, ptr %6, align 4
  call void @llvm.lifetime.end.p0(i64 4, ptr %5) #13
  br label %74

42:                                               ; preds = %37
  call void @llvm.lifetime.start.p0(i64 8, ptr %7) #13
  %43 = load ptr, ptr %3, align 8, !tbaa !35
  %44 = getelementptr inbounds nuw %struct.MXFContext, ptr %43, i32 0, i32 8
  %45 = load i32, ptr %5, align 4, !tbaa !47
  %46 = sext i32 %45 to i64
  %47 = getelementptr inbounds [26 x %struct.MXFMetadataSetGroup], ptr %44, i64 0, i64 %46
  store ptr %47, ptr %7, align 8, !tbaa !114
  call void @llvm.lifetime.start.p0(i64 4, ptr %8) #13
  store i32 0, ptr %8, align 4, !tbaa !47
  br label %48

48:                                               ; preds = %63, %42
  %49 = load i32, ptr %8, align 4, !tbaa !47
  %50 = load ptr, ptr %7, align 8, !tbaa !114
  %51 = getelementptr inbounds nuw %struct.MXFMetadataSetGroup, ptr %50, i32 0, i32 1
  %52 = load i32, ptr %51, align 8, !tbaa !116
  %53 = icmp slt i32 %49, %52
  br i1 %53, label %55, label %54

54:                                               ; preds = %48
  store i32 8, ptr %6, align 4
  call void @llvm.lifetime.end.p0(i64 4, ptr %8) #13
  br label %66

55:                                               ; preds = %48
  %56 = load ptr, ptr %7, align 8, !tbaa !114
  %57 = getelementptr inbounds nuw %struct.MXFMetadataSetGroup, ptr %56, i32 0, i32 0
  %58 = load ptr, ptr %57, align 8, !tbaa !119
  %59 = load i32, ptr %8, align 4, !tbaa !47
  %60 = sext i32 %59 to i64
  %61 = getelementptr inbounds ptr, ptr %58, i64 %60
  %62 = load i32, ptr %5, align 4, !tbaa !47
  call void @mxf_free_metadataset(ptr noundef %61, i32 noundef %62)
  br label %63

63:                                               ; preds = %55
  %64 = load i32, ptr %8, align 4, !tbaa !47
  %65 = add nsw i32 %64, 1
  store i32 %65, ptr %8, align 4, !tbaa !47
  br label %48, !llvm.loop !120

66:                                               ; preds = %54
  %67 = load ptr, ptr %7, align 8, !tbaa !114
  %68 = getelementptr inbounds nuw %struct.MXFMetadataSetGroup, ptr %67, i32 0, i32 1
  store i32 0, ptr %68, align 8, !tbaa !116
  %69 = load ptr, ptr %7, align 8, !tbaa !114
  %70 = getelementptr inbounds nuw %struct.MXFMetadataSetGroup, ptr %69, i32 0, i32 0
  call void @av_freep(ptr noundef %70)
  call void @llvm.lifetime.end.p0(i64 8, ptr %7) #13
  br label %71

71:                                               ; preds = %66
  %72 = load i32, ptr %5, align 4, !tbaa !47
  %73 = add nsw i32 %72, 1
  store i32 %73, ptr %5, align 4, !tbaa !47
  br label %37, !llvm.loop !121

74:                                               ; preds = %41
  %75 = load ptr, ptr %3, align 8, !tbaa !35
  %76 = getelementptr inbounds nuw %struct.MXFContext, ptr %75, i32 0, i32 1
  call void @av_freep(ptr noundef %76)
  %77 = load ptr, ptr %3, align 8, !tbaa !35
  %78 = getelementptr inbounds nuw %struct.MXFContext, ptr %77, i32 0, i32 10
  call void @av_freep(ptr noundef %78)
  %79 = load ptr, ptr %3, align 8, !tbaa !35
  %80 = getelementptr inbounds nuw %struct.MXFContext, ptr %79, i32 0, i32 11
  call void @av_freep(ptr noundef %80)
  %81 = load ptr, ptr %3, align 8, !tbaa !35
  %82 = getelementptr inbounds nuw %struct.MXFContext, ptr %81, i32 0, i32 21
  %83 = load ptr, ptr %82, align 8, !tbaa !70
  %84 = icmp ne ptr %83, null
  br i1 %84, label %85, label %126

85:                                               ; preds = %74
  call void @llvm.lifetime.start.p0(i64 4, ptr %9) #13
  store i32 0, ptr %9, align 4, !tbaa !47
  br label %86

86:                                               ; preds = %122, %85
  %87 = load i32, ptr %9, align 4, !tbaa !47
  %88 = load ptr, ptr %3, align 8, !tbaa !35
  %89 = getelementptr inbounds nuw %struct.MXFContext, ptr %88, i32 0, i32 20
  %90 = load i32, ptr %89, align 4, !tbaa !69
  %91 = icmp slt i32 %87, %90
  br i1 %91, label %93, label %92

92:                                               ; preds = %86
  store i32 11, ptr %6, align 4
  call void @llvm.lifetime.end.p0(i64 4, ptr %9) #13
  br label %125

93:                                               ; preds = %86
  %94 = load ptr, ptr %3, align 8, !tbaa !35
  %95 = getelementptr inbounds nuw %struct.MXFContext, ptr %94, i32 0, i32 21
  %96 = load ptr, ptr %95, align 8, !tbaa !70
  %97 = load i32, ptr %9, align 4, !tbaa !47
  %98 = sext i32 %97 to i64
  %99 = getelementptr inbounds %struct.MXFIndexTable, ptr %96, i64 %98
  %100 = getelementptr inbounds nuw %struct.MXFIndexTable, ptr %99, i32 0, i32 6
  call void @av_freep(ptr noundef %100)
  %101 = load ptr, ptr %3, align 8, !tbaa !35
  %102 = getelementptr inbounds nuw %struct.MXFContext, ptr %101, i32 0, i32 21
  %103 = load ptr, ptr %102, align 8, !tbaa !70
  %104 = load i32, ptr %9, align 4, !tbaa !47
  %105 = sext i32 %104 to i64
  %106 = getelementptr inbounds %struct.MXFIndexTable, ptr %103, i64 %105
  %107 = getelementptr inbounds nuw %struct.MXFIndexTable, ptr %106, i32 0, i32 4
  call void @av_freep(ptr noundef %107)
  %108 = load ptr, ptr %3, align 8, !tbaa !35
  %109 = getelementptr inbounds nuw %struct.MXFContext, ptr %108, i32 0, i32 21
  %110 = load ptr, ptr %109, align 8, !tbaa !70
  %111 = load i32, ptr %9, align 4, !tbaa !47
  %112 = sext i32 %111 to i64
  %113 = getelementptr inbounds %struct.MXFIndexTable, ptr %110, i64 %112
  %114 = getelementptr inbounds nuw %struct.MXFIndexTable, ptr %113, i32 0, i32 7
  call void @av_freep(ptr noundef %114)
  %115 = load ptr, ptr %3, align 8, !tbaa !35
  %116 = getelementptr inbounds nuw %struct.MXFContext, ptr %115, i32 0, i32 21
  %117 = load ptr, ptr %116, align 8, !tbaa !70
  %118 = load i32, ptr %9, align 4, !tbaa !47
  %119 = sext i32 %118 to i64
  %120 = getelementptr inbounds %struct.MXFIndexTable, ptr %117, i64 %119
  %121 = getelementptr inbounds nuw %struct.MXFIndexTable, ptr %120, i32 0, i32 8
  call void @av_freep(ptr noundef %121)
  br label %122

122:                                              ; preds = %93
  %123 = load i32, ptr %9, align 4, !tbaa !47
  %124 = add nsw i32 %123, 1
  store i32 %124, ptr %9, align 4, !tbaa !47
  br label %86, !llvm.loop !122

125:                                              ; preds = %92
  br label %126

126:                                              ; preds = %125, %74
  %127 = load ptr, ptr %3, align 8, !tbaa !35
  %128 = getelementptr inbounds nuw %struct.MXFContext, ptr %127, i32 0, i32 21
  call void @av_freep(ptr noundef %128)
  store i32 1, ptr %6, align 4
  call void @llvm.lifetime.end.p0(i64 8, ptr %3) #13
  ret i32 0
}