; Function Attrs: nounwind uwtable
define internal noundef i32 @mxf_read_close(ptr noundef readonly captures(none) %0) #1 {
  %2 = getelementptr inbounds nuw i8, ptr %0, i64 24
  %3 = load ptr, ptr %2, align 8, !tbaa !15
  %4 = getelementptr inbounds nuw i8, ptr %3, i64 24
  tail call void @av_freep(ptr noundef nonnull %4) #15
  %5 = getelementptr inbounds nuw i8, ptr %3, i64 40
  tail call void @av_freep(ptr noundef nonnull %5) #15
  %6 = getelementptr inbounds nuw i8, ptr %0, i64 44
  %7 = load i32, ptr %6, align 4, !tbaa !209
  %.not46 = icmp eq i32 %7, 0
  br i1 %.not46, label %.preheader39, label %.lr.ph

.lr.ph:                                           ; preds = %1
  %8 = getelementptr inbounds nuw i8, ptr %0, i64 48
  %9 = load ptr, ptr %8, align 8, !tbaa !210
  %wide.trip.count = zext i32 %7 to i64
  br label %11

.preheader39:                                     ; preds = %11, %1
  %10 = getelementptr inbounds nuw i8, ptr %3, i64 56
  br label %24

11:                                               ; preds = %.lr.ph, %11
  %indvars.iv = phi i64 [ 0, %.lr.ph ], [ %indvars.iv.next, %11 ]
  %12 = getelementptr inbounds nuw ptr, ptr %9, i64 %indvars.iv
  %13 = load ptr, ptr %12, align 8, !tbaa !211
  %14 = getelementptr inbounds nuw i8, ptr %13, i64 24
  store ptr null, ptr %14, align 8, !tbaa !125
  %indvars.iv.next = add nuw nsw i64 %indvars.iv, 1
  %exitcond.not = icmp eq i64 %indvars.iv.next, %wide.trip.count
  br i1 %exitcond.not, label %.preheader39, label %11, !llvm.loop !298

15:                                               ; preds = %._crit_edge
  %16 = getelementptr inbounds nuw i8, ptr %3, i64 8
  tail call void @av_freep(ptr noundef nonnull %16) #15
  %17 = getelementptr inbounds nuw i8, ptr %3, i64 480
  tail call void @av_freep(ptr noundef nonnull %17) #15
  %18 = getelementptr inbounds nuw i8, ptr %3, i64 488
  tail call void @av_freep(ptr noundef nonnull %18) #15
  %19 = getelementptr inbounds nuw i8, ptr %3, i64 592
  %20 = load ptr, ptr %19, align 8, !tbaa !233
  %.not = icmp eq ptr %20, null
  br i1 %.not, label %.loopexit, label %.preheader

.preheader:                                       ; preds = %15
  %21 = getelementptr inbounds nuw i8, ptr %3, i64 588
  %22 = load i32, ptr %21, align 4, !tbaa !231
  %23 = icmp sgt i32 %22, 0
  br i1 %23, label %.lr.ph45, label %.loopexit

24:                                               ; preds = %.preheader39, %._crit_edge
  %indvars.iv51 = phi i64 [ 0, %.preheader39 ], [ %indvars.iv.next52, %._crit_edge ]
  %25 = getelementptr inbounds nuw [26 x %struct.MXFMetadataSetGroup], ptr %10, i64 0, i64 %indvars.iv51
  %26 = getelementptr inbounds nuw i8, ptr %25, i64 8
  %27 = load i32, ptr %26, align 8, !tbaa !62
  %28 = icmp sgt i32 %27, 0
  br i1 %28, label %.lr.ph42.preheader, label %._crit_edge

.lr.ph42.preheader:                               ; preds = %24
  %29 = trunc nuw nsw i64 %indvars.iv51 to i32
  br label %.lr.ph42

._crit_edge:                                      ; preds = %.lr.ph42, %24
  store i32 0, ptr %26, align 8, !tbaa !62
  tail call void @av_freep(ptr noundef nonnull %25) #15
  %indvars.iv.next52 = add nuw nsw i64 %indvars.iv51, 1
  %exitcond54.not = icmp eq i64 %indvars.iv.next52, 26
  br i1 %exitcond54.not, label %15, label %24, !llvm.loop !299

.lr.ph42:                                         ; preds = %.lr.ph42.preheader, %.lr.ph42
  %indvars.iv48 = phi i64 [ 0, %.lr.ph42.preheader ], [ %indvars.iv.next49, %.lr.ph42 ]
  %30 = load ptr, ptr %25, align 8, !tbaa !65
  %31 = getelementptr inbounds nuw ptr, ptr %30, i64 %indvars.iv48
  tail call fastcc void @mxf_free_metadataset(ptr noundef %31, i32 noundef %29)
  %indvars.iv.next49 = add nuw nsw i64 %indvars.iv48, 1
  %32 = load i32, ptr %26, align 8, !tbaa !62
  %33 = sext i32 %32 to i64
  %34 = icmp slt i64 %indvars.iv.next49, %33
  br i1 %34, label %.lr.ph42, label %._crit_edge, !llvm.loop !300

.lr.ph45:                                         ; preds = %.preheader, %.lr.ph45
  %indvars.iv55 = phi i64 [ %indvars.iv.next56, %.lr.ph45 ], [ 0, %.preheader ]
  %35 = load ptr, ptr %19, align 8, !tbaa !233
  %36 = getelementptr inbounds nuw %struct.MXFIndexTable, ptr %35, i64 %indvars.iv55, i32 6
  tail call void @av_freep(ptr noundef nonnull %36) #15
  %37 = load ptr, ptr %19, align 8, !tbaa !233
  %38 = getelementptr inbounds nuw %struct.MXFIndexTable, ptr %37, i64 %indvars.iv55, i32 4
  tail call void @av_freep(ptr noundef nonnull %38) #15
  %39 = load ptr, ptr %19, align 8, !tbaa !233
  %40 = getelementptr inbounds nuw %struct.MXFIndexTable, ptr %39, i64 %indvars.iv55, i32 7
  tail call void @av_freep(ptr noundef nonnull %40) #15
  %41 = load ptr, ptr %19, align 8, !tbaa !233
  %42 = getelementptr inbounds nuw %struct.MXFIndexTable, ptr %41, i64 %indvars.iv55, i32 8
  tail call void @av_freep(ptr noundef nonnull %42) #15
  %indvars.iv.next56 = add nuw nsw i64 %indvars.iv55, 1
  %43 = load i32, ptr %21, align 4, !tbaa !231
  %44 = sext i32 %43 to i64
  %45 = icmp slt i64 %indvars.iv.next56, %44
  br i1 %45, label %.lr.ph45, label %.loopexit, !llvm.loop !301

.loopexit:                                        ; preds = %.lr.ph45, %.preheader, %15
  tail call void @av_freep(ptr noundef nonnull %19) #15
  ret i32 0
}